; Function Attrs: mustprogress uwtable
define dso_local void @_ZNK5vcpkg10VcpkgPaths9build_dirERKNS_11PackageSpecE(ptr dead_on_unwind noalias writable sret(%"struct.vcpkg::Path") align 8 %0, ptr noundef nonnull readonly align 8 captures(none) dereferenceable(440) %1, ptr noundef nonnull align 8 dereferenceable(40) %2) local_unnamed_addr #0 align 2 {
  %4 = alloca %"struct.vcpkg::StringView", align 8
  %5 = tail call noundef nonnull align 8 dereferenceable(32) ptr @_ZNK5vcpkg10VcpkgPaths10buildtreesEv(ptr noundef nonnull align 8 dereferenceable(440) %1)
  %6 = tail call noundef nonnull align 8 dereferenceable(32) ptr @_ZNK5vcpkg11PackageSpec4nameB5cxx11Ev(ptr noundef nonnull align 8 dereferenceable(40) %2)
  call void @_ZN5vcpkg10StringViewC1ERKNSt7__cxx1112basic_stringIcSt11char_traitsIcESaIcEEE(ptr noundef nonnull align 8 dereferenceable(16) %4, ptr noundef nonnull align 8 dereferenceable(32) %6) #28
  %7 = load ptr, ptr %4, align 8
  %8 = getelementptr inbounds nuw i8, ptr %4, i64 8
  %9 = load i64, ptr %8, align 8
  call void @_ZNKR5vcpkg4PathdvENS_10StringViewE(ptr dead_on_unwind writable sret(%"struct.vcpkg::Path") align 8 %0, ptr noundef nonnull align 8 dereferenceable(32) %5, ptr %7, i64 %9)
  ret void
}